target datalayout = "e-m:e-p270:32:32-p271:32:32-p272:64:64-i64:64-i128:128-f80:128-n8:16:32:64-S128"
target triple = "x86_64-pc-linux-gnu"

%struct.CBuf = type { ptr, i64 }
%struct.CSzAr = type { ptr, ptr, ptr, ptr, ptr, i32, i32, i32 }
%struct.CSzArEx = type { %struct.CSzAr, i64, i64, ptr, ptr, ptr, ptr, ptr, %struct.CBuf }

; Function Attrs: nounwind uwtable
define i64 @SzArEx_GetFileNameUtf16(ptr noundef %0, i64 noundef %1, ptr noundef %2) #0 {
  %4 = alloca ptr, align 8
  %5 = alloca i64, align 8
  %6 = alloca ptr, align 8
  %7 = alloca i64, align 8
  %8 = alloca i64, align 8
  %9 = alloca ptr, align 8
  store ptr %0, ptr %4, align 8
  store i64 %1, ptr %5, align 8
  store ptr %2, ptr %6, align 8
  %10 = load ptr, ptr %4, align 8
  %11 = getelementptr inbounds %struct.CSzArEx, ptr %10, i32 0, i32 7
  %12 = load ptr, ptr %11, align 8
  %13 = load i64, ptr %5, align 8
  %14 = add i64 %13, 1
  %15 = getelementptr inbounds i64, ptr %12, i64 %14
  %16 = load i64, ptr %15, align 8
  %17 = load ptr, ptr %4, align 8
  %18 = getelementptr inbounds %struct.CSzArEx, ptr %17, i32 0, i32 7
  %19 = load ptr, ptr %18, align 8
  %20 = load i64, ptr %5, align 8
  %21 = getelementptr inbounds i64, ptr %19, i64 %20
  %22 = load i64, ptr %21, align 8
  %23 = sub i64 %16, %22
  store i64 %23, ptr %7, align 8
  %24 = load ptr, ptr %6, align 8
  %25 = icmp ne ptr %24, null
  br i1 %25, label %26, label %56

26:                                               ; preds = %3
  %27 = load ptr, ptr %4, align 8
  %28 = getelementptr inbounds %struct.CSzArEx, ptr %27, i32 0, i32 8
  %29 = getelementptr inbounds %struct.CBuf, ptr %28, i32 0, i32 0
  %30 = load ptr, ptr %29, align 8
  %31 = load ptr, ptr %4, align 8
  %32 = getelementptr inbounds %struct.CSzArEx, ptr %31, i32 0, i32 7
  %33 = load ptr, ptr %32, align 8
  %34 = load i64, ptr %5, align 8
  %35 = getelementptr inbounds i64, ptr %33, i64 %34
  %36 = load i64, ptr %35, align 8
  %37 = mul i64 %36, 2
  %38 = getelementptr inbounds i8, ptr %30, i64 %37
  store ptr %38, ptr %9, align 8
  store i64 0, ptr %8, align 8
  br label %39

39:                                               ; preds = %52, %26
  %40 = load i64, ptr %8, align 8
  %41 = load i64, ptr %7, align 8
  %42 = icmp ult i64 %40, %41
  br i1 %42, label %43, label %55

43:                                               ; preds = %39
  %44 = load ptr, ptr %9, align 8
  %45 = load i64, ptr %8, align 8
  %46 = mul i64 %45, 2
  %47 = getelementptr inbounds i8, ptr %44, i64 %46
  %48 = load i16, ptr %47, align 1
  %49 = load ptr, ptr %6, align 8
  %50 = load i64, ptr %8, align 8
  %51 = getelementptr inbounds i16, ptr %49, i64 %50
  store i16 %48, ptr %51, align 2
  br label %52

52:                                               ; preds = %43
  %53 = load i64, ptr %8, align 8
  %54 = add i64 %53, 1
  store i64 %54, ptr %8, align 8
  br label %39

55:                                               ; preds = %39
  br label %56

56:                                               ; preds = %55, %3
  %57 = load i64, ptr %7, align 8
  ret i64 %57
}