; Function Attrs: nofree norecurse nosync nounwind memory(read, argmem: readwrite, inaccessiblemem: none) uwtable
define i64 @SzArEx_GetFileNameUtf16(ptr noundef readonly captures(none) %0, i64 noundef %1, ptr noundef writeonly %2) local_unnamed_addr #5 {
  %4 = getelementptr inbounds nuw i8, ptr %0, i64 104
  %5 = load ptr, ptr %4, align 8
  %6 = getelementptr i64, ptr %5, i64 %1
  %7 = getelementptr i8, ptr %6, i64 8
  %8 = load i64, ptr %7, align 8
  %9 = load i64, ptr %6, align 8
  %10 = sub i64 %8, %9
  %.not = icmp eq ptr %2, null
  br i1 %.not, label %.loopexit, label %11

11:                                               ; preds = %3
  %12 = getelementptr inbounds nuw i8, ptr %0, i64 112
  %13 = load ptr, ptr %12, align 8
  %14 = shl i64 %9, 1
  %15 = getelementptr inbounds i8, ptr %13, i64 %14
  %.not17 = icmp eq i64 %8, %9
  br i1 %.not17, label %.loopexit, label %.lr.ph

.lr.ph:                                           ; preds = %11, %.lr.ph
  %.016 = phi i64 [ %20, %.lr.ph ], [ 0, %11 ]
  %16 = shl i64 %.016, 1
  %17 = getelementptr inbounds i8, ptr %15, i64 %16
  %18 = load i16, ptr %17, align 1
  %19 = getelementptr inbounds i16, ptr %2, i64 %.016
  store i16 %18, ptr %19, align 2
  %20 = add nuw i64 %.016, 1
  %exitcond.not = icmp eq i64 %20, %10
  br i1 %exitcond.not, label %.loopexit, label %.lr.ph

.loopexit:                                        ; preds = %.lr.ph, %11, %3
  ret i64 %10
}